target datalayout = "e-m:e-p270:32:32-p271:32:32-p272:64:64-i64:64-i128:128-f80:128-n8:16:32:64-S128"
target triple = "x86_64-pc-linux-gnu"

%struct.XVisualInfo = type { ptr, i64, i32, i32, i32, i64, i64, i64, i32, i32 }
%struct.Visual = type { ptr, i64, i32, i64, i64, i64, i32, i32 }
%struct.XPixmapFormatValues = type { i32, i32, i32 }
%struct.anon.0 = type { ptr, ptr, i32, i32, i32, i32, ptr, i64, i64, i64, i32, ptr, i32, i32, i32, i32, i32, ptr, i32, i32, ptr, ptr, i32, i64, i64, ptr, ptr, ptr, ptr, i32, ptr, ptr, ptr, i32, i32, ptr, i64, i64, i32, i32, ptr, ptr, i32, ptr }

@X11_XFree = external global ptr, align 8
@X11_XListPixmapFormats = external global ptr, align 8

; Function Attrs: nounwind uwtable
define hidden i32 @X11_GetPixelFormatFromVisualInfo(ptr noundef %0, ptr noundef %1) #0 {
  %3 = alloca i32, align 4
  %4 = alloca ptr, align 8
  %5 = alloca ptr, align 8
  %6 = alloca i32, align 4
  %7 = alloca i32, align 4
  %8 = alloca i32, align 4
  %9 = alloca i32, align 4
  %10 = alloca i32, align 4
  %11 = alloca i32, align 4
  %12 = alloca i32, align 4
  %13 = alloca ptr, align 8
  store ptr %0, ptr %4, align 8
  store ptr %1, ptr %5, align 8
  %14 = load ptr, ptr %5, align 8
  %15 = getelementptr inbounds nuw %struct.XVisualInfo, ptr %14, i32 0, i32 4
  %16 = load i32, ptr %15, align 8
  %17 = icmp eq i32 %16, 5
  br i1 %17, label %23, label %18

18:                                               ; preds = %2
  %19 = load ptr, ptr %5, align 8
  %20 = getelementptr inbounds nuw %struct.XVisualInfo, ptr %19, i32 0, i32 4
  %21 = load i32, ptr %20, align 8
  %22 = icmp eq i32 %21, 4
  br i1 %22, label %23, label %103

23:                                               ; preds = %18, %2
  call void @llvm.lifetime.start.p0(i64 4, ptr %6) #6
  call void @llvm.lifetime.start.p0(i64 4, ptr %7) #6
  call void @llvm.lifetime.start.p0(i64 4, ptr %8) #6
  call void @llvm.lifetime.start.p0(i64 4, ptr %9) #6
  call void @llvm.lifetime.start.p0(i64 4, ptr %10) #6
  %24 = load ptr, ptr %5, align 8
  %25 = getelementptr inbounds nuw %struct.XVisualInfo, ptr %24, i32 0, i32 0
  %26 = load ptr, ptr %25, align 8
  %27 = getelementptr inbounds nuw %struct.Visual, ptr %26, i32 0, i32 3
  %28 = load i64, ptr %27, align 8
  %29 = trunc i64 %28 to i32
  store i32 %29, ptr %7, align 4
  %30 = load ptr, ptr %5, align 8
  %31 = getelementptr inbounds nuw %struct.XVisualInfo, ptr %30, i32 0, i32 0
  %32 = load ptr, ptr %31, align 8
  %33 = getelementptr inbounds nuw %struct.Visual, ptr %32, i32 0, i32 4
  %34 = load i64, ptr %33, align 8
  %35 = trunc i64 %34 to i32
  store i32 %35, ptr %8, align 4
  %36 = load ptr, ptr %5, align 8
  %37 = getelementptr inbounds nuw %struct.XVisualInfo, ptr %36, i32 0, i32 0
  %38 = load ptr, ptr %37, align 8
  %39 = getelementptr inbounds nuw %struct.Visual, ptr %38, i32 0, i32 5
  %40 = load i64, ptr %39, align 8
  %41 = trunc i64 %40 to i32
  store i32 %41, ptr %9, align 4
  %42 = load ptr, ptr %5, align 8
  %43 = getelementptr inbounds nuw %struct.XVisualInfo, ptr %42, i32 0, i32 3
  %44 = load i32, ptr %43, align 4
  %45 = icmp eq i32 %44, 32
  br i1 %45, label %46, label %54

46:                                               ; preds = %23
  %47 = load i32, ptr %7, align 4
  %48 = load i32, ptr %8, align 4
  %49 = or i32 %47, %48
  %50 = load i32, ptr %9, align 4
  %51 = or i32 %49, %50
  %52 = xor i32 %51, -1
  %53 = and i32 -1, %52
  store i32 %53, ptr %10, align 4
  br label %55

54:                                               ; preds = %23
  store i32 0, ptr %10, align 4
  br label %55

55:                                               ; preds = %54, %46
  %56 = load ptr, ptr %5, align 8
  %57 = getelementptr inbounds nuw %struct.XVisualInfo, ptr %56, i32 0, i32 3
  %58 = load i32, ptr %57, align 4
  store i32 %58, ptr %6, align 4
  %59 = load i32, ptr %6, align 4
  %60 = icmp eq i32 %59, 24
  br i1 %60, label %61, label %96

61:                                               ; preds = %55
  call void @llvm.lifetime.start.p0(i64 4, ptr %11) #6
  call void @llvm.lifetime.start.p0(i64 4, ptr %12) #6
  call void @llvm.lifetime.start.p0(i64 8, ptr %13) #6
  %62 = load ptr, ptr @X11_XListPixmapFormats, align 8
  %63 = load ptr, ptr %4, align 8
  %64 = call ptr %62(ptr noundef %63, ptr noundef %12)
  store ptr %64, ptr %13, align 8
  %65 = load ptr, ptr %13, align 8
  %66 = icmp ne ptr %65, null
  br i1 %66, label %67, label %95

67:                                               ; preds = %61
  store i32 0, ptr %11, align 4
  br label %68

68:                                               ; preds = %88, %67
  %69 = load i32, ptr %11, align 4
  %70 = load i32, ptr %12, align 4
  %71 = icmp slt i32 %69, %70
  br i1 %71, label %72, label %91

72:                                               ; preds = %68
  %73 = load ptr, ptr %13, align 8
  %74 = load i32, ptr %11, align 4
  %75 = sext i32 %74 to i64
  %76 = getelementptr inbounds %struct.XPixmapFormatValues, ptr %73, i64 %75
  %77 = getelementptr inbounds nuw %struct.XPixmapFormatValues, ptr %76, i32 0, i32 0
  %78 = load i32, ptr %77, align 4
  %79 = icmp eq i32 %78, 24
  br i1 %79, label %80, label %87

80:                                               ; preds = %72
  %81 = load ptr, ptr %13, align 8
  %82 = load i32, ptr %11, align 4
  %83 = sext i32 %82 to i64
  %84 = getelementptr inbounds %struct.XPixmapFormatValues, ptr %81, i64 %83
  %85 = getelementptr inbounds nuw %struct.XPixmapFormatValues, ptr %84, i32 0, i32 1
  %86 = load i32, ptr %85, align 4
  store i32 %86, ptr %6, align 4
  br label %91

87:                                               ; preds = %72
  br label %88

88:                                               ; preds = %87
  %89 = load i32, ptr %11, align 4
  %90 = add nsw i32 %89, 1
  store i32 %90, ptr %11, align 4
  br label %68, !llvm.loop !3

91:                                               ; preds = %80, %68
  %92 = load ptr, ptr @X11_XFree, align 8
  %93 = load ptr, ptr %13, align 8
  %94 = call i32 %92(ptr noundef %93)
  br label %95

95:                                               ; preds = %91, %61
  call void @llvm.lifetime.end.p0(i64 8, ptr %13) #6
  call void @llvm.lifetime.end.p0(i64 4, ptr %12) #6
  call void @llvm.lifetime.end.p0(i64 4, ptr %11) #6
  br label %96

96:                                               ; preds = %95, %55
  %97 = load i32, ptr %6, align 4
  %98 = load i32, ptr %7, align 4
  %99 = load i32, ptr %8, align 4
  %100 = load i32, ptr %9, align 4
  %101 = load i32, ptr %10, align 4
  %102 = call i32 @SDL_GetPixelFormatForMasks_REAL(i32 noundef %97, i32 noundef %98, i32 noundef %99, i32 noundef %100, i32 noundef %101)
  store i32 %102, ptr %3, align 4
  call void @llvm.lifetime.end.p0(i64 4, ptr %10) #6
  call void @llvm.lifetime.end.p0(i64 4, ptr %9) #6
  call void @llvm.lifetime.end.p0(i64 4, ptr %8) #6
  call void @llvm.lifetime.end.p0(i64 4, ptr %7) #6
  call void @llvm.lifetime.end.p0(i64 4, ptr %6) #6
  br label %134

103:                                              ; preds = %18
  %104 = load ptr, ptr %5, align 8
  %105 = getelementptr inbounds nuw %struct.XVisualInfo, ptr %104, i32 0, i32 4
  %106 = load i32, ptr %105, align 8
  %107 = icmp eq i32 %106, 3
  br i1 %107, label %113, label %108

108:                                              ; preds = %103
  %109 = load ptr, ptr %5, align 8
  %110 = getelementptr inbounds nuw %struct.XVisualInfo, ptr %109, i32 0, i32 4
  %111 = load i32, ptr %110, align 8
  %112 = icmp eq i32 %111, 2
  br i1 %112, label %113, label %133

113:                                              ; preds = %108, %103
  %114 = load ptr, ptr %5, align 8
  %115 = getelementptr inbounds nuw %struct.XVisualInfo, ptr %114, i32 0, i32 3
  %116 = load i32, ptr %115, align 4
  switch i32 %116, label %132 [
    i32 8, label %117
    i32 4, label %118
    i32 1, label %125
  ]

117:                                              ; preds = %113
  store i32 318769153, ptr %3, align 4
  br label %134

118:                                              ; preds = %113
  %119 = load ptr, ptr %4, align 8
  %120 = getelementptr inbounds nuw %struct.anon.0, ptr %119, i32 0, i32 15
  %121 = load i32, ptr %120, align 4
  %122 = icmp eq i32 %121, 0
  br i1 %122, label %123, label %124

123:                                              ; preds = %118
  store i32 303039488, ptr %3, align 4
  br label %134

124:                                              ; preds = %118
  store i32 304088064, ptr %3, align 4
  br label %134

125:                                              ; preds = %113
  %126 = load ptr, ptr %4, align 8
  %127 = getelementptr inbounds nuw %struct.anon.0, ptr %126, i32 0, i32 15
  %128 = load i32, ptr %127, align 4
  %129 = icmp eq i32 %128, 0
  br i1 %129, label %130, label %131

130:                                              ; preds = %125
  store i32 286261504, ptr %3, align 4
  br label %134

131:                                              ; preds = %125
  store i32 287310080, ptr %3, align 4
  br label %134

132:                                              ; preds = %113
  br label %133

133:                                              ; preds = %132, %108
  store i32 0, ptr %3, align 4
  br label %134

134:                                              ; preds = %133, %131, %130, %124, %123, %117, %96
  %135 = load i32, ptr %3, align 4
  ret i32 %135
}