; Function Attrs: nounwind uwtable
define hidden i32 @X11_GetPixelFormatFromVisualInfo(ptr noundef %0, ptr noundef readonly captures(none) %1) local_unnamed_addr #0 {
  %3 = alloca i32, align 4
  %4 = getelementptr inbounds nuw i8, ptr %1, i64 24
  %5 = load i32, ptr %4, align 8
  switch i32 %5, label %52 [
    i32 5, label %6
    i32 4, label %6
    i32 3, label %41
    i32 2, label %41
  ]

6:                                                ; preds = %2, %2
  %7 = load ptr, ptr %1, align 8
  %8 = getelementptr inbounds nuw i8, ptr %7, i64 24
  %9 = load i64, ptr %8, align 8
  %10 = trunc i64 %9 to i32
  %11 = getelementptr inbounds nuw i8, ptr %7, i64 32
  %12 = load i64, ptr %11, align 8
  %13 = trunc i64 %12 to i32
  %14 = getelementptr inbounds nuw i8, ptr %7, i64 40
  %15 = load i64, ptr %14, align 8
  %16 = trunc i64 %15 to i32
  %17 = getelementptr inbounds nuw i8, ptr %1, i64 20
  %18 = load i32, ptr %17, align 4
  %19 = icmp eq i32 %18, 32
  %20 = or i32 %13, %10
  %21 = or i32 %20, %16
  %22 = xor i32 %21, -1
  %.031 = select i1 %19, i32 %22, i32 0
  %23 = icmp eq i32 %18, 24
  br i1 %23, label %24, label %39

24:                                               ; preds = %6
  call void @llvm.lifetime.start.p0(i64 4, ptr nonnull %3) #8
  %25 = load ptr, ptr @X11_XListPixmapFormats, align 8
  %26 = call ptr %25(ptr noundef %0, ptr noundef nonnull %3) #8
  %.not = icmp eq ptr %26, null
  br i1 %.not, label %38, label %.preheader

.preheader:                                       ; preds = %24
  %27 = load i32, ptr %3, align 4
  %28 = icmp sgt i32 %27, 0
  br i1 %28, label %.lr.ph.preheader, label %.loopexit

.lr.ph.preheader:                                 ; preds = %.preheader
  %wide.trip.count = zext nneg i32 %27 to i64
  br label %.lr.ph

29:                                               ; preds = %.lr.ph
  %indvars.iv.next = add nuw nsw i64 %indvars.iv, 1
  %exitcond.not = icmp eq i64 %indvars.iv.next, %wide.trip.count
  br i1 %exitcond.not, label %.loopexit, label %.lr.ph, !llvm.loop !3

.lr.ph:                                           ; preds = %.lr.ph.preheader, %29
  %indvars.iv = phi i64 [ 0, %.lr.ph.preheader ], [ %indvars.iv.next, %29 ]
  %30 = getelementptr inbounds nuw %struct.XPixmapFormatValues, ptr %26, i64 %indvars.iv
  %31 = load i32, ptr %30, align 4
  %32 = icmp eq i32 %31, 24
  br i1 %32, label %33, label %29

33:                                               ; preds = %.lr.ph
  %34 = getelementptr inbounds nuw i8, ptr %30, i64 4
  %35 = load i32, ptr %34, align 4
  br label %.loopexit

.loopexit:                                        ; preds = %29, %.preheader, %33
  %.2 = phi i32 [ %35, %33 ], [ 24, %.preheader ], [ 24, %29 ]
  %36 = load ptr, ptr @X11_XFree, align 8
  %37 = call i32 %36(ptr noundef nonnull %26) #8
  br label %38

38:                                               ; preds = %.loopexit, %24
  %.1 = phi i32 [ %.2, %.loopexit ], [ 24, %24 ]
  call void @llvm.lifetime.end.p0(i64 4, ptr nonnull %3) #8
  br label %39

39:                                               ; preds = %38, %6
  %.032 = phi i32 [ %.1, %38 ], [ %18, %6 ]
  %40 = call i32 @SDL_GetPixelFormatForMasks_REAL(i32 noundef %.032, i32 noundef %10, i32 noundef %13, i32 noundef %16, i32 noundef %.031) #8
  br label %53

41:                                               ; preds = %2, %2
  %42 = getelementptr inbounds nuw i8, ptr %1, i64 20
  %43 = load i32, ptr %42, align 4
  switch i32 %43, label %52 [
    i32 8, label %53
    i32 4, label %44
    i32 1, label %48
  ]

44:                                               ; preds = %41
  %45 = getelementptr inbounds nuw i8, ptr %0, i64 92
  %46 = load i32, ptr %45, align 4
  %47 = icmp eq i32 %46, 0
  %. = select i1 %47, i32 303039488, i32 304088064
  br label %53

48:                                               ; preds = %41
  %49 = getelementptr inbounds nuw i8, ptr %0, i64 92
  %50 = load i32, ptr %49, align 4
  %51 = icmp eq i32 %50, 0
  %.37 = select i1 %51, i32 286261504, i32 287310080
  br label %53

52:                                               ; preds = %2, %41
  br label %53

53:                                               ; preds = %48, %44, %41, %52, %39
  %.0 = phi i32 [ %40, %39 ], [ 0, %52 ], [ 318769153, %41 ], [ %., %44 ], [ %.37, %48 ]
  ret i32 %.0
}